target datalayout = "e-m:e-p270:32:32-p271:32:32-p272:64:64-i64:64-i128:128-f80:128-n8:16:32:64-S128"
target triple = "x86_64-pc-linux-gnu"

%struct._zend_extension = type { ptr, ptr, ptr, ptr, ptr, ptr, ptr, ptr, ptr, ptr, ptr, ptr, ptr, ptr, ptr, ptr, ptr, ptr, ptr, ptr, ptr, ptr, ptr, ptr, ptr, i32 }
%struct.__va_list_tag = type { i32, i32, ptr, ptr }

; Function Attrs: nounwind uwtable
define internal void @zend_extension_message_dispatcher(ptr noundef %0, i32 noundef %1, ptr noundef %2) #0 {
  %4 = alloca ptr, align 8
  %5 = alloca i32, align 4
  %6 = alloca ptr, align 8
  %7 = alloca i32, align 4
  %8 = alloca ptr, align 8
  %9 = alloca i32, align 4
  store ptr %0, ptr %4, align 8, !tbaa !14
  store i32 %1, ptr %5, align 4, !tbaa !34
  store ptr %2, ptr %6, align 8, !tbaa !43
  call void @llvm.lifetime.start.p0(i64 4, ptr %7) #11
  call void @llvm.lifetime.start.p0(i64 8, ptr %8) #11
  %10 = load ptr, ptr %4, align 8, !tbaa !14
  %11 = getelementptr inbounds nuw %struct._zend_extension, ptr %10, i32 0, i32 9
  %12 = load ptr, ptr %11, align 8, !tbaa !45
  %13 = icmp ne ptr %12, null
  br i1 %13, label %14, label %17

14:                                               ; preds = %3
  %15 = load i32, ptr %5, align 4, !tbaa !34
  %16 = icmp ne i32 %15, 2
  br i1 %16, label %17, label %18

17:                                               ; preds = %14, %3
  store i32 1, ptr %9, align 4
  br label %56

18:                                               ; preds = %14
  %19 = load ptr, ptr %6, align 8, !tbaa !43
  %20 = getelementptr inbounds nuw %struct.__va_list_tag, ptr %19, i32 0, i32 0
  %21 = load i32, ptr %20, align 8
  %22 = icmp ule i32 %21, 40
  br i1 %22, label %23, label %28

23:                                               ; preds = %18
  %24 = getelementptr inbounds nuw %struct.__va_list_tag, ptr %19, i32 0, i32 3
  %25 = load ptr, ptr %24, align 8
  %26 = getelementptr i8, ptr %25, i32 %21
  %27 = add i32 %21, 8
  store i32 %27, ptr %20, align 8
  br label %32

28:                                               ; preds = %18
  %29 = getelementptr inbounds nuw %struct.__va_list_tag, ptr %19, i32 0, i32 2
  %30 = load ptr, ptr %29, align 8
  %31 = getelementptr i8, ptr %30, i32 8
  store ptr %31, ptr %29, align 8
  br label %32

32:                                               ; preds = %28, %23
  %33 = phi ptr [ %26, %23 ], [ %30, %28 ]
  %34 = load i32, ptr %33, align 4, !tbaa !34
  store i32 %34, ptr %7, align 4, !tbaa !34
  %35 = load ptr, ptr %6, align 8, !tbaa !43
  %36 = getelementptr inbounds nuw %struct.__va_list_tag, ptr %35, i32 0, i32 0
  %37 = load i32, ptr %36, align 8
  %38 = icmp ule i32 %37, 40
  br i1 %38, label %39, label %44

39:                                               ; preds = %32
  %40 = getelementptr inbounds nuw %struct.__va_list_tag, ptr %35, i32 0, i32 3
  %41 = load ptr, ptr %40, align 8
  %42 = getelementptr i8, ptr %41, i32 %37
  %43 = add i32 %37, 8
  store i32 %43, ptr %36, align 8
  br label %48

44:                                               ; preds = %32
  %45 = getelementptr inbounds nuw %struct.__va_list_tag, ptr %35, i32 0, i32 2
  %46 = load ptr, ptr %45, align 8
  %47 = getelementptr i8, ptr %46, i32 8
  store ptr %47, ptr %45, align 8
  br label %48

48:                                               ; preds = %44, %39
  %49 = phi ptr [ %42, %39 ], [ %46, %44 ]
  %50 = load ptr, ptr %49, align 8, !tbaa !9
  store ptr %50, ptr %8, align 8, !tbaa !9
  %51 = load ptr, ptr %4, align 8, !tbaa !14
  %52 = getelementptr inbounds nuw %struct._zend_extension, ptr %51, i32 0, i32 9
  %53 = load ptr, ptr %52, align 8, !tbaa !45
  %54 = load i32, ptr %7, align 4, !tbaa !34
  %55 = load ptr, ptr %8, align 8, !tbaa !9
  call void %53(i32 noundef %54, ptr noundef %55)
  store i32 0, ptr %9, align 4
  br label %56

56:                                               ; preds = %48, %17
  call void @llvm.lifetime.end.p0(i64 8, ptr %8) #11
  call void @llvm.lifetime.end.p0(i64 4, ptr %7) #11
  %57 = load i32, ptr %9, align 4
  switch i32 %57, label %59 [
    i32 0, label %58
    i32 1, label %58
  ]

58:                                               ; preds = %56, %56
  ret void

59:                                               ; preds = %56
  unreachable
}