; Function Attrs: nounwind uwtable
define internal void @zend_extension_message_dispatcher(ptr noundef readonly captures(none) %0, i32 noundef %1, ptr noundef captures(none) %2) #0 {
  %4 = getelementptr inbounds nuw i8, ptr %0, i64 72
  %5 = load ptr, ptr %4, align 8, !tbaa !34
  %6 = icmp eq ptr %5, null
  %7 = icmp ne i32 %1, 2
  %or.cond = or i1 %7, %6
  br i1 %or.cond, label %39, label %8

8:                                                ; preds = %3
  %9 = load i32, ptr %2, align 8
  %10 = icmp ult i32 %9, 41
  br i1 %10, label %15, label %.thread

.thread:                                          ; preds = %8
  %11 = getelementptr inbounds nuw i8, ptr %2, i64 8
  %12 = load ptr, ptr %11, align 8
  %13 = getelementptr i8, ptr %12, i64 8
  store ptr %13, ptr %11, align 8
  %14 = load i32, ptr %12, align 4, !tbaa !25
  br label %29

15:                                               ; preds = %8
  %16 = getelementptr inbounds nuw i8, ptr %2, i64 16
  %17 = load ptr, ptr %16, align 8
  %18 = zext nneg i32 %9 to i64
  %19 = getelementptr i8, ptr %17, i64 %18
  %20 = add nuw nsw i32 %9, 8
  store i32 %20, ptr %2, align 8
  %21 = load i32, ptr %19, align 4, !tbaa !25
  %22 = icmp ult i32 %9, 33
  br i1 %22, label %23, label %29

23:                                               ; preds = %15
  %24 = getelementptr inbounds nuw i8, ptr %2, i64 16
  %25 = load ptr, ptr %24, align 8
  %26 = zext nneg i32 %20 to i64
  %27 = getelementptr i8, ptr %25, i64 %26
  %28 = add nuw nsw i32 %9, 16
  store i32 %28, ptr %2, align 8
  br label %34

29:                                               ; preds = %.thread, %15
  %30 = phi i32 [ %14, %.thread ], [ %21, %15 ]
  %31 = getelementptr inbounds nuw i8, ptr %2, i64 8
  %32 = load ptr, ptr %31, align 8
  %33 = getelementptr i8, ptr %32, i64 8
  store ptr %33, ptr %31, align 8
  br label %34

34:                                               ; preds = %29, %23
  %35 = phi i32 [ %21, %23 ], [ %30, %29 ]
  %36 = phi ptr [ %27, %23 ], [ %32, %29 ]
  %37 = load ptr, ptr %36, align 8, !tbaa !24
  %38 = load ptr, ptr %4, align 8, !tbaa !34
  tail call void %38(i32 noundef %35, ptr noundef %37) #14
  br label %39

39:                                               ; preds = %3, %34
  ret void
}